target datalayout = "e-m:e-p270:32:32-p271:32:32-p272:64:64-i64:64-i128:128-f80:128-n8:16:32:64-S128"
target triple = "x86_64-pc-linux-gnu"

%struct.evp_pkey_ctx_st = type { i32, ptr, ptr, ptr, ptr, %union.anon, %struct.anon.4, ptr, ptr, ptr, i32, i32, ptr, ptr, ptr, ptr, ptr, i8, ptr }
%union.anon = type { %struct.anon.0 }
%struct.anon.0 = type { ptr, ptr }
%struct.anon.4 = type { ptr, ptr, i64, i8 }

@.str = private unnamed_addr constant [33 x i8] c"../openssl/crypto/evp/pmeth_gn.c\00", align 1
@__func__.fromdata_init = private unnamed_addr constant [14 x i8] c"fromdata_init\00", align 1

; Function Attrs: nounwind uwtable
define internal i32 @fromdata_init(ptr noundef %0, i32 noundef %1) #0 {
  %3 = alloca i32, align 4
  %4 = alloca ptr, align 8
  %5 = alloca i32, align 4
  store ptr %0, ptr %4, align 8, !tbaa !3
  store i32 %1, ptr %5, align 4, !tbaa !8
  %6 = load ptr, ptr %4, align 8, !tbaa !3
  %7 = icmp eq ptr %6, null
  br i1 %7, label %13, label %8

8:                                                ; preds = %2
  %9 = load ptr, ptr %4, align 8, !tbaa !3
  %10 = getelementptr inbounds nuw %struct.evp_pkey_ctx_st, ptr %9, i32 0, i32 3
  %11 = load ptr, ptr %10, align 8, !tbaa !61
  %12 = icmp eq ptr %11, null
  br i1 %12, label %13, label %14

13:                                               ; preds = %8, %2
  br label %25

14:                                               ; preds = %8
  %15 = load ptr, ptr %4, align 8, !tbaa !3
  call void @evp_pkey_ctx_free_old_ops(ptr noundef %15)
  %16 = load ptr, ptr %4, align 8, !tbaa !3
  %17 = getelementptr inbounds nuw %struct.evp_pkey_ctx_st, ptr %16, i32 0, i32 4
  %18 = load ptr, ptr %17, align 8, !tbaa !22
  %19 = icmp eq ptr %18, null
  br i1 %19, label %20, label %21

20:                                               ; preds = %14
  br label %25

21:                                               ; preds = %14
  %22 = load i32, ptr %5, align 4, !tbaa !8
  %23 = load ptr, ptr %4, align 8, !tbaa !3
  %24 = getelementptr inbounds nuw %struct.evp_pkey_ctx_st, ptr %23, i32 0, i32 0
  store i32 %22, ptr %24, align 8, !tbaa !10
  store i32 1, ptr %3, align 4
  br label %32

25:                                               ; preds = %20, %13
  %26 = load ptr, ptr %4, align 8, !tbaa !3
  %27 = icmp ne ptr %26, null
  br i1 %27, label %28, label %31

28:                                               ; preds = %25
  %29 = load ptr, ptr %4, align 8, !tbaa !3
  %30 = getelementptr inbounds nuw %struct.evp_pkey_ctx_st, ptr %29, i32 0, i32 0
  store i32 0, ptr %30, align 8, !tbaa !10
  br label %31

31:                                               ; preds = %28, %25
  call void @ERR_new()
  call void @ERR_set_debug(ptr noundef @.str, i32 noundef 354, ptr noundef @__func__.fromdata_init)
  call void (i32, i32, ptr, ...) @ERR_set_error(i32 noundef 6, i32 noundef 150, ptr noundef null)
  store i32 -2, ptr %3, align 4
  br label %32

32:                                               ; preds = %31, %21
  %33 = load i32, ptr %3, align 4
  ret i32 %33
}

; Function Attrs: nounwind uwtable
define i32 @EVP_PKEY_fromdata_init(ptr noundef %0) #0 {
  %2 = alloca ptr, align 8
  store ptr %0, ptr %2, align 8, !tbaa !3
  %3 = load ptr, ptr %2, align 8, !tbaa !3
  %4 = call i32 @fromdata_init(ptr noundef %3, i32 noundef 8)
  ret i32 %4
}