; Function Attrs: nounwind uwtable
define range(i32 -2, 2) i32 @EVP_PKEY_fromdata_init(ptr noundef %0) local_unnamed_addr #0 {
  %cond.i = icmp eq ptr %0, null
  br i1 %cond.i, label %12, label %2

2:                                                ; preds = %1
  %3 = getelementptr inbounds nuw i8, ptr %0, i64 24
  %4 = load ptr, ptr %3, align 8, !tbaa !51
  %5 = icmp eq ptr %4, null
  br i1 %5, label %11, label %6

6:                                                ; preds = %2
  tail call void @evp_pkey_ctx_free_old_ops(ptr noundef nonnull %0) #6
  %7 = getelementptr inbounds nuw i8, ptr %0, i64 32
  %8 = load ptr, ptr %7, align 8, !tbaa !19
  %9 = icmp eq ptr %8, null
  br i1 %9, label %11, label %10

10:                                               ; preds = %6
  store i32 8, ptr %0, align 8, !tbaa !3
  br label %fromdata_init.exit

11:                                               ; preds = %6, %2
  store i32 0, ptr %0, align 8, !tbaa !3
  br label %12

12:                                               ; preds = %11, %1
  tail call void @ERR_new() #6
  tail call void @ERR_set_debug(ptr noundef nonnull @.str, i32 noundef 354, ptr noundef nonnull @__func__.fromdata_init) #6
  tail call void (i32, i32, ptr, ...) @ERR_set_error(i32 noundef 6, i32 noundef 150, ptr noundef null) #6
  br label %fromdata_init.exit

fromdata_init.exit:                               ; preds = %10, %12
  %.0.i = phi i32 [ -2, %12 ], [ 1, %10 ]
  ret i32 %.0.i
}